; ModuleID = 'source-C-CXX/44/906.c'
source_filename = "source-C-CXX/44/906.c"
target datalayout = "e-m:e-p270:32:32-p271:32:32-p272:64:64-i64:64-f80:128-n8:16:32:64-S128"
target triple = "x86_64-pc-linux-gnu"

@.str = private unnamed_addr constant [6 x i8] c"%s %s\00", align 1
@.str.1 = private unnamed_addr constant [4 x i8] c"%d\0A\00", align 1

; Function Attrs: nofree nounwind sspstrong uwtable
define dso_local i32 @main() local_unnamed_addr #0 {
  %1 = alloca [50 x i8], align 16
  %2 = alloca [50 x i8], align 16
  %3 = getelementptr inbounds [50 x i8], [50 x i8]* %1, i64 0, i64 0
  call void @llvm.lifetime.start.p0i8(i64 50, i8* nonnull %3) #3
  %4 = getelementptr inbounds [50 x i8], [50 x i8]* %2, i64 0, i64 0
  call void @llvm.lifetime.start.p0i8(i64 50, i8* nonnull %4) #3
  %5 = call i32 (i8*, ...) @__isoc99_scanf(i8* getelementptr inbounds ([6 x i8], [6 x i8]* @.str, i64 0, i64 0), i8* nonnull %3, i8* nonnull %4)
  %6 = load i8, i8* %3, align 16, !tbaa !5
  br label %7

7:                                                ; preds = %0, %36
  %8 = phi i8 [ %6, %0 ], [ %34, %36 ]
  %9 = phi i64 [ 0, %0 ], [ %37, %36 ]
  %10 = phi i32 [ 0, %0 ], [ %31, %36 ]
  %11 = phi i32 [ 0, %0 ], [ %30, %36 ]
  %12 = phi i32 [ 0, %0 ], [ %38, %36 ]
  %13 = getelementptr inbounds [50 x i8], [50 x i8]* %2, i64 0, i64 %9
  %14 = load i8, i8* %13, align 1, !tbaa !5
  %15 = icmp eq i8 %8, %14
  %16 = zext i1 %15 to i32
  %17 = add nsw i32 %11, %16
  %18 = add nsw i32 %10, %16
  %19 = sext i32 %18 to i64
  %20 = getelementptr inbounds [50 x i8], [50 x i8]* %1, i64 0, i64 %19
  %21 = load i8, i8* %20, align 1, !tbaa !5
  %22 = icmp eq i8 %21, 0
  br i1 %22, label %23, label %25

23:                                               ; preds = %7
  %24 = trunc i64 %9 to i32
  br label %42

25:                                               ; preds = %7
  %26 = add nuw nsw i64 %9, 1
  %27 = getelementptr inbounds [50 x i8], [50 x i8]* %2, i64 0, i64 %26
  %28 = load i8, i8* %27, align 1, !tbaa !5
  %29 = icmp eq i8 %21, %28
  %30 = select i1 %29, i32 %17, i32 0
  %31 = select i1 %29, i32 %18, i32 0
  %32 = sext i32 %31 to i64
  %33 = getelementptr inbounds [50 x i8], [50 x i8]* %1, i64 0, i64 %32
  %34 = load i8, i8* %33, align 1, !tbaa !5
  %35 = icmp eq i8 %34, 0
  br i1 %35, label %40, label %36

36:                                               ; preds = %25
  %37 = add nuw i64 %9, 1
  %38 = add nuw nsw i32 %12, 1
  %39 = icmp slt i32 %31, 50
  br i1 %39, label %7, label %42, !llvm.loop !8

40:                                               ; preds = %25
  %41 = trunc i64 %9 to i32
  br label %42

42:                                               ; preds = %36, %40, %23
  %43 = phi i32 [ %17, %23 ], [ %30, %40 ], [ %30, %36 ]
  %44 = phi i32 [ %24, %23 ], [ %41, %40 ], [ %38, %36 ]
  %45 = add i32 %44, 1
  %46 = sub i32 %45, %43
  %47 = call i32 (i8*, ...) @printf(i8* nonnull dereferenceable(1) getelementptr inbounds ([4 x i8], [4 x i8]* @.str.1, i64 0, i64 0), i32 %46)
  call void @llvm.lifetime.end.p0i8(i64 50, i8* nonnull %4) #3
  call void @llvm.lifetime.end.p0i8(i64 50, i8* nonnull %3) #3
  ret i32 0
}

; Function Attrs: argmemonly mustprogress nofree nosync nounwind willreturn
declare void @llvm.lifetime.start.p0i8(i64 immarg, i8* nocapture) #1

; Function Attrs: nofree nounwind
declare noundef i32 @__isoc99_scanf(i8* nocapture noundef readonly, ...) local_unnamed_addr #2

; Function Attrs: nofree nounwind
declare noundef i32 @printf(i8* nocapture noundef readonly, ...) local_unnamed_addr #2

; Function Attrs: argmemonly mustprogress nofree nosync nounwind willreturn
declare void @llvm.lifetime.end.p0i8(i64 immarg, i8* nocapture) #1


!llvm.module.flags = !{!0, !1, !2, !3}
!llvm.ident = !{!4}

!0 = !{i32 1, !"wchar_size", i32 4}
!1 = !{i32 7, !"PIC Level", i32 2}
!2 = !{i32 7, !"PIE Level", i32 2}
!3 = !{i32 7, !"uwtable", i32 1}
!4 = !{!"clang version 13.0.0"}
!5 = !{!6, !6, i64 0}
!6 = !{!"omnipotent char", !7, i64 0}
!7 = !{!"Simple C/C++ TBAA"}
!8 = distinct !{!8, !9}
!9 = !{!"llvm.loop.mustprogress"}
